; Function Attrs: mustprogress uwtable
define void @_ZN5faiss17ResidualQuantizer23compute_codebook_tablesEv(ptr noundef nonnull align 8 dereferenceable(432) %0) local_unnamed_addr #0 align 2 personality ptr @__gxx_personality_v0 {
  %2 = alloca i32, align 4
  %3 = alloca i32, align 4
  %4 = alloca i32, align 4
  %5 = alloca float, align 4
  %6 = alloca float, align 4
  %7 = getelementptr inbounds i8, ptr %0, i64 408
  %8 = getelementptr inbounds i8, ptr %0, i64 120
  %9 = load i64, ptr %8, align 8
  %10 = getelementptr inbounds i8, ptr %0, i64 416
  %11 = load ptr, ptr %10, align 8
  %12 = load ptr, ptr %7, align 8
  %13 = ptrtoint ptr %11 to i64
  %14 = ptrtoint ptr %12 to i64
  %15 = sub i64 %13, %14
  %16 = ashr exact i64 %15, 2
  %17 = icmp ult i64 %16, %9
  br i1 %17, label %18, label %20

18:                                               ; preds = %1
  %19 = sub i64 %9, %16
  tail call void @_ZNSt6vectorIfSaIfEE17_M_default_appendEm(ptr noundef nonnull align 8 dereferenceable(24) %7, i64 noundef %19)
  %.pre = load ptr, ptr %7, align 8
  %.pre30 = load i64, ptr %8, align 8
  br label %_ZNSt6vectorIfSaIfEE6resizeEm.exit

20:                                               ; preds = %1
  %21 = icmp ugt i64 %16, %9
  br i1 %21, label %22, label %_ZNSt6vectorIfSaIfEE6resizeEm.exit

22:                                               ; preds = %20
  %23 = getelementptr inbounds float, ptr %12, i64 %9
  %.not.i.i = icmp eq ptr %11, %23
  br i1 %.not.i.i, label %_ZNSt6vectorIfSaIfEE6resizeEm.exit, label %24

24:                                               ; preds = %22
  store ptr %23, ptr %10, align 8
  br label %_ZNSt6vectorIfSaIfEE6resizeEm.exit

_ZNSt6vectorIfSaIfEE6resizeEm.exit:               ; preds = %18, %20, %22, %24
  %25 = phi i64 [ %.pre30, %18 ], [ %9, %20 ], [ %9, %22 ], [ %9, %24 ]
  %26 = phi ptr [ %.pre, %18 ], [ %12, %20 ], [ %12, %22 ], [ %12, %24 ]
  %27 = getelementptr inbounds i8, ptr %0, i64 56
  %28 = load ptr, ptr %27, align 8
  %29 = getelementptr inbounds i8, ptr %0, i64 8
  %30 = load i64, ptr %29, align 8
  tail call void @_ZN5faiss16fvec_norms_L2sqrEPfPKfmm(ptr noundef %26, ptr noundef %28, i64 noundef %30, i64 noundef %25)
  %31 = getelementptr inbounds i8, ptr %0, i64 24
  %32 = load i64, ptr %31, align 8
  %.not = icmp eq i64 %32, 0
  br i1 %.not, label %._crit_edge.thread, label %.lr.ph

._crit_edge.thread:                               ; preds = %_ZNSt6vectorIfSaIfEE6resizeEm.exit
  %33 = getelementptr inbounds i8, ptr %0, i64 384
  %34 = getelementptr inbounds i8, ptr %0, i64 392
  %35 = load ptr, ptr %34, align 8
  %36 = load ptr, ptr %33, align 8
  %37 = ptrtoint ptr %35 to i64
  %38 = ptrtoint ptr %36 to i64
  %39 = sub i64 %37, %38
  %40 = ashr exact i64 %39, 2
  br label %63

.lr.ph:                                           ; preds = %_ZNSt6vectorIfSaIfEE6resizeEm.exit
  %41 = getelementptr inbounds i8, ptr %0, i64 32
  %42 = load ptr, ptr %41, align 8
  %43 = getelementptr inbounds i8, ptr %0, i64 80
  %44 = load ptr, ptr %43, align 8
  br label %45

45:                                               ; preds = %.lr.ph, %45
  %indvars.iv = phi i64 [ 0, %.lr.ph ], [ %indvars.iv.next, %45 ]
  %.01421 = phi i64 [ 0, %.lr.ph ], [ %51, %45 ]
  %46 = getelementptr inbounds i64, ptr %42, i64 %indvars.iv
  %47 = load i64, ptr %46, align 8
  %48 = getelementptr inbounds i64, ptr %44, i64 %indvars.iv
  %49 = load i64, ptr %48, align 8
  %50 = shl i64 %49, %47
  %51 = add i64 %50, %.01421
  %indvars.iv.next = add nuw nsw i64 %indvars.iv, 1
  %exitcond.not = icmp eq i64 %indvars.iv.next, %32
  br i1 %exitcond.not, label %._crit_edge, label %45, !llvm.loop !23

._crit_edge:                                      ; preds = %45
  %52 = getelementptr inbounds i8, ptr %0, i64 384
  %53 = getelementptr inbounds i8, ptr %0, i64 392
  %54 = load ptr, ptr %53, align 8
  %55 = load ptr, ptr %52, align 8
  %56 = ptrtoint ptr %54 to i64
  %57 = ptrtoint ptr %55 to i64
  %58 = sub i64 %56, %57
  %59 = ashr exact i64 %58, 2
  %60 = icmp ult i64 %59, %51
  br i1 %60, label %61, label %63

61:                                               ; preds = %._crit_edge
  %62 = sub i64 %51, %59
  tail call void @_ZNSt6vectorIfSaIfEE17_M_default_appendEm(ptr noundef nonnull align 8 dereferenceable(24) %52, i64 noundef %62)
  %.pre31 = load i64, ptr %31, align 8
  br label %_ZNSt6vectorIfSaIfEE6resizeEm.exit19

63:                                               ; preds = %._crit_edge.thread, %._crit_edge
  %64 = phi i64 [ %40, %._crit_edge.thread ], [ %59, %._crit_edge ]
  %65 = phi ptr [ %36, %._crit_edge.thread ], [ %55, %._crit_edge ]
  %66 = phi ptr [ %35, %._crit_edge.thread ], [ %54, %._crit_edge ]
  %67 = phi ptr [ %34, %._crit_edge.thread ], [ %53, %._crit_edge ]
  %68 = phi ptr [ %33, %._crit_edge.thread ], [ %52, %._crit_edge ]
  %.014.lcssa33 = phi i64 [ 0, %._crit_edge.thread ], [ %51, %._crit_edge ]
  %69 = icmp ugt i64 %64, %.014.lcssa33
  br i1 %69, label %70, label %_ZNSt6vectorIfSaIfEE6resizeEm.exit19

70:                                               ; preds = %63
  %71 = getelementptr inbounds float, ptr %65, i64 %.014.lcssa33
  %.not.i.i18 = icmp eq ptr %66, %71
  br i1 %.not.i.i18, label %_ZNSt6vectorIfSaIfEE6resizeEm.exit19, label %72

72:                                               ; preds = %70
  store ptr %71, ptr %67, align 8
  br label %_ZNSt6vectorIfSaIfEE6resizeEm.exit19

_ZNSt6vectorIfSaIfEE6resizeEm.exit19:             ; preds = %61, %63, %70, %72
  %73 = phi ptr [ %52, %61 ], [ %68, %63 ], [ %68, %70 ], [ %68, %72 ]
  %74 = phi i64 [ %.pre31, %61 ], [ %32, %63 ], [ %32, %70 ], [ %32, %72 ]
  %75 = icmp ugt i64 %74, 1
  br i1 %75, label %.lr.ph24, label %._crit_edge25

.lr.ph24:                                         ; preds = %_ZNSt6vectorIfSaIfEE6resizeEm.exit19
  %76 = getelementptr inbounds i8, ptr %0, i64 32
  %77 = getelementptr inbounds i8, ptr %0, i64 80
  br label %78

78:                                               ; preds = %.lr.ph24, %78
  %indvars.iv27 = phi i64 [ 1, %.lr.ph24 ], [ %indvars.iv.next28, %78 ]
  %.01322 = phi i64 [ 0, %.lr.ph24 ], [ %101, %78 ]
  %79 = load ptr, ptr %76, align 8
  %80 = getelementptr inbounds i64, ptr %79, i64 %indvars.iv27
  %81 = load i64, ptr %80, align 8
  %82 = shl nuw i64 1, %81
  %83 = trunc i64 %82 to i32
  store i32 %83, ptr %2, align 4
  %84 = load ptr, ptr %77, align 8
  %85 = getelementptr inbounds i64, ptr %84, i64 %indvars.iv27
  %86 = load i64, ptr %85, align 8
  %87 = trunc i64 %86 to i32
  store i32 %87, ptr %3, align 4
  %88 = load i64, ptr %29, align 8
  %89 = trunc i64 %88 to i32
  store i32 %89, ptr %4, align 4
  store float 0.000000e+00, ptr %5, align 4
  store float 1.000000e+00, ptr %6, align 4
  %90 = load ptr, ptr %27, align 8
  %sext = shl i64 %86, 32
  %91 = ashr exact i64 %sext, 32
  %92 = mul i64 %88, %91
  %93 = getelementptr inbounds float, ptr %90, i64 %92
  %94 = load ptr, ptr %73, align 8
  %95 = getelementptr inbounds float, ptr %94, i64 %.01322
  %96 = call i32 @sgemm_(ptr noundef nonnull @.str.21, ptr noundef nonnull @.str.22, ptr noundef nonnull %2, ptr noundef nonnull %3, ptr noundef nonnull %4, ptr noundef nonnull %6, ptr noundef %93, ptr noundef nonnull %4, ptr noundef %90, ptr noundef nonnull %4, ptr noundef nonnull %5, ptr noundef %95, ptr noundef nonnull %2)
  %97 = load i32, ptr %2, align 4
  %98 = load i32, ptr %3, align 4
  %99 = mul nsw i32 %98, %97
  %100 = sext i32 %99 to i64
  %101 = add i64 %.01322, %100
  %indvars.iv.next28 = add nuw nsw i64 %indvars.iv27, 1
  %102 = load i64, ptr %31, align 8
  %103 = icmp ugt i64 %102, %indvars.iv.next28
  br i1 %103, label %78, label %._crit_edge25, !llvm.loop !24

._crit_edge25:                                    ; preds = %78, %_ZNSt6vectorIfSaIfEE6resizeEm.exit19
  ret void
}